target datalayout = "e-m:e-p270:32:32-p271:32:32-p272:64:64-i64:64-i128:128-f80:128-n8:16:32:64-S128"
target triple = "x86_64-pc-linux-gnu"

%struct._diam_sub_dis_t = type { i32, i32, i32, i32, i32, ptr, ptr, i32, i32, i32 }
%struct._proto_node = type { ptr, ptr, ptr, ptr, ptr, ptr }
%struct.field_info = type { ptr, i32, i32, i32, i32, i32, i32, ptr, ptr, ptr, i32, i32 }

@hf_diameter_3gpp_dea_flags = internal global i32 0, align 4
@ett_diameter_3gpp_dea_flags = internal global i32 0, align 4
@dissect_diameter_3gpp_dea_flags.flags = internal constant [4 x ptr] [ptr @hf_diameter_3gpp_dea_flags_spare_bits, ptr @hf_diameter_3gpp_dea_flags_bit1, ptr @hf_diameter_3gpp_dea_flags_bit0, ptr null], align 16

; Function Attrs: nounwind uwtable
define internal void @proto_item_set_hidden(ptr noundef %0) #0 {
  %2 = alloca ptr, align 8
  store ptr %0, ptr %2, align 8
  %3 = load ptr, ptr %2, align 8
  %4 = icmp ne ptr %3, null
  br i1 %4, label %5, label %24

5:                                                ; preds = %1
  br label %6

6:                                                ; preds = %5
  %7 = load ptr, ptr %2, align 8
  %8 = getelementptr inbounds %struct._proto_node, ptr %7, i32 0, i32 4
  %9 = load ptr, ptr %8, align 8
  %10 = icmp ne ptr %9, null
  br i1 %10, label %11, label %22

11:                                               ; preds = %6
  %12 = load ptr, ptr %2, align 8
  %13 = getelementptr inbounds %struct._proto_node, ptr %12, i32 0, i32 4
  %14 = load ptr, ptr %13, align 8
  %15 = getelementptr inbounds %struct.field_info, ptr %14, i32 0, i32 6
  %16 = load i32, ptr %15, align 4
  %17 = or i32 %16, 1
  %18 = load ptr, ptr %2, align 8
  %19 = getelementptr inbounds %struct._proto_node, ptr %18, i32 0, i32 4
  %20 = load ptr, ptr %19, align 8
  %21 = getelementptr inbounds %struct.field_info, ptr %20, i32 0, i32 6
  store i32 %17, ptr %21, align 4
  br label %22

22:                                               ; preds = %11, %6
  br label %23

23:                                               ; preds = %22
  br label %24

24:                                               ; preds = %23, %1
  ret void
}

; Function Attrs: nounwind uwtable
define internal i32 @dissect_diameter_3gpp_dea_flags(ptr noundef %0, ptr noundef %1, ptr noundef %2, ptr noundef %3) #0 {
  %5 = alloca ptr, align 8
  %6 = alloca ptr, align 8
  %7 = alloca ptr, align 8
  %8 = alloca ptr, align 8
  %9 = alloca ptr, align 8
  store ptr %0, ptr %5, align 8
  store ptr %1, ptr %6, align 8
  store ptr %2, ptr %7, align 8
  store ptr %3, ptr %8, align 8
  %10 = load ptr, ptr %8, align 8
  store ptr %10, ptr %9, align 8
  %11 = load ptr, ptr %9, align 8
  %12 = getelementptr inbounds %struct._diam_sub_dis_t, ptr %11, i32 0, i32 6
  %13 = load ptr, ptr %12, align 8
  call void @proto_item_set_hidden(ptr noundef %13)
  %14 = load ptr, ptr %7, align 8
  %15 = load ptr, ptr %5, align 8
  %16 = load i32, ptr @hf_diameter_3gpp_dea_flags, align 4
  %17 = load i32, ptr @ett_diameter_3gpp_dea_flags, align 4
  %18 = call ptr @proto_tree_add_bitmask_with_flags(ptr noundef %14, ptr noundef %15, i32 noundef 0, i32 noundef %16, i32 noundef %17, ptr noundef @dissect_diameter_3gpp_dea_flags.flags, i32 noundef 0, i32 noundef 1)
  ret i32 4
}